target datalayout = "e-m:e-p270:32:32-p271:32:32-p272:64:64-i64:64-i128:128-f80:128-n8:16:32:64-S128"
target triple = "x86_64-pc-linux-gnu"

%struct.jv = type { i8, i8, i16, i32, %union.anon }
%union.anon = type { ptr }

; Function Attrs: nounwind uwtable
define internal { i64, ptr } @order_cmp(i64 %0, ptr %1, i64 %2, ptr %3, i32 noundef %4) #0 {
  %6 = alloca %struct.jv, align 8
  %7 = alloca %struct.jv, align 8
  %8 = alloca %struct.jv, align 8
  %9 = alloca i32, align 4
  %10 = alloca i32, align 4
  %11 = getelementptr inbounds nuw { i64, ptr }, ptr %7, i32 0, i32 0
  store i64 %0, ptr %11, align 8
  %12 = getelementptr inbounds nuw { i64, ptr }, ptr %7, i32 0, i32 1
  store ptr %1, ptr %12, align 8
  %13 = getelementptr inbounds nuw { i64, ptr }, ptr %8, i32 0, i32 0
  store i64 %2, ptr %13, align 8
  %14 = getelementptr inbounds nuw { i64, ptr }, ptr %8, i32 0, i32 1
  store ptr %3, ptr %14, align 8
  store i32 %4, ptr %9, align 4, !tbaa !10
  call void @llvm.lifetime.start.p0(i64 4, ptr %10) #10
  %15 = getelementptr inbounds nuw { i64, ptr }, ptr %7, i32 0, i32 0
  %16 = load i64, ptr %15, align 8
  %17 = getelementptr inbounds nuw { i64, ptr }, ptr %7, i32 0, i32 1
  %18 = load ptr, ptr %17, align 8
  %19 = getelementptr inbounds nuw { i64, ptr }, ptr %8, i32 0, i32 0
  %20 = load i64, ptr %19, align 8
  %21 = getelementptr inbounds nuw { i64, ptr }, ptr %8, i32 0, i32 1
  %22 = load ptr, ptr %21, align 8
  %23 = call i32 @jv_cmp(i64 %16, ptr %18, i64 %20, ptr %22)
  store i32 %23, ptr %10, align 4, !tbaa !10
  %24 = load i32, ptr %9, align 4, !tbaa !10
  %25 = icmp eq i32 %24, 0
  br i1 %25, label %26, label %29

26:                                               ; preds = %5
  %27 = load i32, ptr %10, align 4, !tbaa !10
  %28 = icmp slt i32 %27, 0
  br i1 %28, label %49, label %29

29:                                               ; preds = %26, %5
  %30 = load i32, ptr %9, align 4, !tbaa !10
  %31 = icmp eq i32 %30, 2
  br i1 %31, label %32, label %35

32:                                               ; preds = %29
  %33 = load i32, ptr %10, align 4, !tbaa !10
  %34 = icmp sle i32 %33, 0
  br i1 %34, label %49, label %35

35:                                               ; preds = %32, %29
  %36 = load i32, ptr %9, align 4, !tbaa !10
  %37 = icmp eq i32 %36, 3
  br i1 %37, label %38, label %41

38:                                               ; preds = %35
  %39 = load i32, ptr %10, align 4, !tbaa !10
  %40 = icmp sge i32 %39, 0
  br i1 %40, label %49, label %41

41:                                               ; preds = %38, %35
  %42 = load i32, ptr %9, align 4, !tbaa !10
  %43 = icmp eq i32 %42, 1
  br i1 %43, label %44, label %47

44:                                               ; preds = %41
  %45 = load i32, ptr %10, align 4, !tbaa !10
  %46 = icmp sgt i32 %45, 0
  br label %47

47:                                               ; preds = %44, %41
  %48 = phi i1 [ false, %41 ], [ %46, %44 ]
  br label %49

49:                                               ; preds = %47, %38, %32, %26
  %50 = phi i1 [ true, %38 ], [ true, %32 ], [ true, %26 ], [ %48, %47 ]
  %51 = zext i1 %50 to i32
  %52 = call { i64, ptr } @jv_bool(i32 noundef %51)
  %53 = getelementptr inbounds nuw { i64, ptr }, ptr %6, i32 0, i32 0
  %54 = extractvalue { i64, ptr } %52, 0
  store i64 %54, ptr %53, align 8
  %55 = getelementptr inbounds nuw { i64, ptr }, ptr %6, i32 0, i32 1
  %56 = extractvalue { i64, ptr } %52, 1
  store ptr %56, ptr %55, align 8
  call void @llvm.lifetime.end.p0(i64 4, ptr %10) #10
  %57 = load { i64, ptr }, ptr %6, align 8
  ret { i64, ptr } %57
}

; Function Attrs: nounwind uwtable
define dso_local { i64, ptr } @binop_greatereq(i64 %0, ptr %1, i64 %2, ptr %3) #0 {
  %5 = alloca %struct.jv, align 8
  %6 = alloca %struct.jv, align 8
  %7 = alloca %struct.jv, align 8
  %8 = getelementptr inbounds nuw { i64, ptr }, ptr %6, i32 0, i32 0
  store i64 %0, ptr %8, align 8
  %9 = getelementptr inbounds nuw { i64, ptr }, ptr %6, i32 0, i32 1
  store ptr %1, ptr %9, align 8
  %10 = getelementptr inbounds nuw { i64, ptr }, ptr %7, i32 0, i32 0
  store i64 %2, ptr %10, align 8
  %11 = getelementptr inbounds nuw { i64, ptr }, ptr %7, i32 0, i32 1
  store ptr %3, ptr %11, align 8
  %12 = getelementptr inbounds nuw { i64, ptr }, ptr %6, i32 0, i32 0
  %13 = load i64, ptr %12, align 8
  %14 = getelementptr inbounds nuw { i64, ptr }, ptr %6, i32 0, i32 1
  %15 = load ptr, ptr %14, align 8
  %16 = getelementptr inbounds nuw { i64, ptr }, ptr %7, i32 0, i32 0
  %17 = load i64, ptr %16, align 8
  %18 = getelementptr inbounds nuw { i64, ptr }, ptr %7, i32 0, i32 1
  %19 = load ptr, ptr %18, align 8
  %20 = call { i64, ptr } @order_cmp(i64 %13, ptr %15, i64 %17, ptr %19, i32 noundef 3)
  %21 = getelementptr inbounds nuw { i64, ptr }, ptr %5, i32 0, i32 0
  %22 = extractvalue { i64, ptr } %20, 0
  store i64 %22, ptr %21, align 8
  %23 = getelementptr inbounds nuw { i64, ptr }, ptr %5, i32 0, i32 1
  %24 = extractvalue { i64, ptr } %20, 1
  store ptr %24, ptr %23, align 8
  %25 = load { i64, ptr }, ptr %5, align 8
  ret { i64, ptr } %25
}

; Function Attrs: nounwind uwtable
define internal { i64, ptr } @f_greatereq(ptr noundef %0, i64 %1, ptr %2, i64 %3, ptr %4, ptr noundef byval(%struct.jv) align 8 %5) #0 {
  %7 = alloca %struct.jv, align 8
  %8 = alloca %struct.jv, align 8
  %9 = alloca %struct.jv, align 8
  %10 = alloca ptr, align 8
  %11 = getelementptr inbounds nuw { i64, ptr }, ptr %8, i32 0, i32 0
  store i64 %1, ptr %11, align 8
  %12 = getelementptr inbounds nuw { i64, ptr }, ptr %8, i32 0, i32 1
  store ptr %2, ptr %12, align 8
  %13 = getelementptr inbounds nuw { i64, ptr }, ptr %9, i32 0, i32 0
  store i64 %3, ptr %13, align 8
  %14 = getelementptr inbounds nuw { i64, ptr }, ptr %9, i32 0, i32 1
  store ptr %4, ptr %14, align 8
  store ptr %0, ptr %10, align 8, !tbaa !25
  %15 = getelementptr inbounds nuw { i64, ptr }, ptr %8, i32 0, i32 0
  %16 = load i64, ptr %15, align 8
  %17 = getelementptr inbounds nuw { i64, ptr }, ptr %8, i32 0, i32 1
  %18 = load ptr, ptr %17, align 8
  call void @jv_free(i64 %16, ptr %18)
  %19 = getelementptr inbounds nuw { i64, ptr }, ptr %9, i32 0, i32 0
  %20 = load i64, ptr %19, align 8
  %21 = getelementptr inbounds nuw { i64, ptr }, ptr %9, i32 0, i32 1
  %22 = load ptr, ptr %21, align 8
  %23 = getelementptr inbounds nuw { i64, ptr }, ptr %5, i32 0, i32 0
  %24 = load i64, ptr %23, align 8
  %25 = getelementptr inbounds nuw { i64, ptr }, ptr %5, i32 0, i32 1
  %26 = load ptr, ptr %25, align 8
  %27 = call { i64, ptr } @binop_greatereq(i64 %20, ptr %22, i64 %24, ptr %26)
  %28 = getelementptr inbounds nuw { i64, ptr }, ptr %7, i32 0, i32 0
  %29 = extractvalue { i64, ptr } %27, 0
  store i64 %29, ptr %28, align 8
  %30 = getelementptr inbounds nuw { i64, ptr }, ptr %7, i32 0, i32 1
  %31 = extractvalue { i64, ptr } %27, 1
  store ptr %31, ptr %30, align 8
  %32 = load { i64, ptr }, ptr %7, align 8
  ret { i64, ptr } %32
}